target datalayout = "e-m:e-p270:32:32-p271:32:32-p272:64:64-i64:64-i128:128-f80:128-n8:16:32:64-S128"
target triple = "x86_64-pc-linux-gnu"

%struct.hs_database = type { i32, i32, i32, i64, i32, i32, i32, i32, [16 x i32], [0 x i8] }

; Function Attrs: alwaysinline nounwind uwtable
define internal i32 @validDatabase(ptr noundef %0) #1 {
  %2 = alloca i32, align 4
  %3 = alloca ptr, align 8
  store ptr %0, ptr %3, align 8
  %4 = load ptr, ptr %3, align 8
  %5 = icmp ne ptr %4, null
  br i1 %5, label %6, label %11

6:                                                ; preds = %1
  %7 = load ptr, ptr %3, align 8
  %8 = getelementptr inbounds nuw %struct.hs_database, ptr %7, i32 0, i32 0
  %9 = load i32, ptr %8, align 8
  %10 = icmp ne i32 %9, -606348325
  br i1 %10, label %11, label %12

11:                                               ; preds = %6, %1
  store i32 -1, ptr %2, align 4
  br label %19

12:                                               ; preds = %6
  %13 = load ptr, ptr %3, align 8
  %14 = getelementptr inbounds nuw %struct.hs_database, ptr %13, i32 0, i32 1
  %15 = load i32, ptr %14, align 4
  %16 = icmp ne i32 %15, 84148736
  br i1 %16, label %17, label %18

17:                                               ; preds = %12
  store i32 -5, ptr %2, align 4
  br label %19

18:                                               ; preds = %12
  store i32 0, ptr %2, align 4
  br label %19

19:                                               ; preds = %18, %17, %11
  %20 = load i32, ptr %2, align 4
  ret i32 %20
}

; Function Attrs: nounwind uwtable
define dso_local i32 @hs_database_size(ptr noundef %0, ptr noundef %1) #0 {
  %3 = alloca i32, align 4
  %4 = alloca ptr, align 8
  %5 = alloca ptr, align 8
  %6 = alloca i32, align 4
  %7 = alloca i32, align 4
  store ptr %0, ptr %4, align 8
  store ptr %1, ptr %5, align 8
  %8 = load ptr, ptr %5, align 8
  %9 = icmp ne ptr %8, null
  br i1 %9, label %11, label %10

10:                                               ; preds = %2
  store i32 -1, ptr %3, align 4
  br label %32

11:                                               ; preds = %2
  call void @llvm.lifetime.start.p0(i64 4, ptr %6) #8
  %12 = load ptr, ptr %4, align 8
  %13 = call i32 @validDatabase(ptr noundef %12)
  store i32 %13, ptr %6, align 4
  %14 = load i32, ptr %6, align 4
  %15 = icmp ne i32 %14, 0
  %16 = xor i1 %15, true
  %17 = xor i1 %16, true
  %18 = zext i1 %17 to i32
  %19 = sext i32 %18 to i64
  %20 = call i64 @llvm.expect.i64(i64 %19, i64 0)
  %21 = icmp ne i64 %20, 0
  br i1 %21, label %22, label %24

22:                                               ; preds = %11
  %23 = load i32, ptr %6, align 4
  store i32 %23, ptr %3, align 4
  store i32 1, ptr %7, align 4
  br label %31

24:                                               ; preds = %11
  %25 = load ptr, ptr %4, align 8
  %26 = getelementptr inbounds nuw %struct.hs_database, ptr %25, i32 0, i32 2
  %27 = load i32, ptr %26, align 8
  %28 = zext i32 %27 to i64
  %29 = add i64 104, %28
  %30 = load ptr, ptr %5, align 8
  store i64 %29, ptr %30, align 8
  store i32 0, ptr %3, align 4
  store i32 1, ptr %7, align 4
  br label %31

31:                                               ; preds = %24, %22
  call void @llvm.lifetime.end.p0(i64 4, ptr %6) #8
  br label %32

32:                                               ; preds = %31, %10
  %33 = load i32, ptr %3, align 4
  ret i32 %33
}