; Function Attrs: mustprogress nofree norecurse nosync nounwind willreturn memory(argmem: readwrite) uwtable
define dso_local range(i32 -5, 1) i32 @hs_database_size(ptr noundef readonly %0, ptr noundef writeonly %1) local_unnamed_addr #3 {
  %.not = icmp eq ptr %1, null
  %.not.i = icmp eq ptr %0, null
  %or.cond = or i1 %.not.i, %.not
  br i1 %or.cond, label %validDatabase.exit.thread, label %3

3:                                                ; preds = %2
  %4 = load i32, ptr %0, align 8
  %.not4.i = icmp eq i32 %4, -606348325
  br i1 %.not4.i, label %5, label %validDatabase.exit.thread

5:                                                ; preds = %3
  %6 = getelementptr inbounds nuw i8, ptr %0, i64 4
  %7 = load i32, ptr %6, align 4
  %.not5.i = icmp eq i32 %7, 84148736
  br i1 %.not5.i, label %validDatabase.exit, label %validDatabase.exit.thread

validDatabase.exit:                               ; preds = %5
  %8 = getelementptr inbounds nuw i8, ptr %0, i64 8
  %9 = load i32, ptr %8, align 8
  %10 = zext i32 %9 to i64
  %11 = add nuw nsw i64 %10, 104
  store i64 %11, ptr %1, align 8
  br label %validDatabase.exit.thread

validDatabase.exit.thread:                        ; preds = %5, %3, %validDatabase.exit, %2
  %.0 = phi i32 [ -1, %2 ], [ 0, %validDatabase.exit ], [ -5, %5 ], [ -1, %3 ]
  ret i32 %.0
}